target datalayout = "e-m:e-p270:32:32-p271:32:32-p272:64:64-i64:64-i128:128-f80:128-n8:16:32:64-S128"
target triple = "x86_64-pc-linux-gnu"

%struct.CVodeMemRec = type { ptr, double, ptr, ptr, i32, i32, double, double, ptr, i32, i32, ptr, ptr, i32, i32, ptr, i32, i32, double, double, ptr, i32, i32, i32, i32, ptr, ptr, ptr, i32, i32, ptr, ptr, ptr, i32, double, i32, i32, double, ptr, ptr, ptr, i32, ptr, ptr, i32, i32, i32, double, ptr, ptr, ptr, [13 x ptr], ptr, ptr, ptr, ptr, ptr, ptr, ptr, ptr, ptr, [13 x ptr], ptr, ptr, ptr, ptr, [13 x ptr], ptr, ptr, ptr, ptr, ptr, i32, [13 x ptr], ptr, ptr, ptr, ptr, ptr, i32, i32, double, i32, i32, i32, i32, i32, double, double, double, double, double, double, double, double, [14 x double], [6 x double], [13 x double], double, double, double, double, double, double, double, double, i32, double, double, i32, double, double, ptr, i32, i64, i32, i32, i32, double, double, double, double, double, double, double, double, double, double, double, double, i64, i32, i64, i64, i64, i64, i64, i64, i64, i64, i64, ptr, i64, i64, ptr, i64, i64, ptr, i64, i64, i64, i64, i64, i64, i32, double, double, double, i64, i64, i64, i64, i64, i64, ptr, i32, ptr, i32, ptr, i32, ptr, i32, i32, i64, i32, ptr, i32, ptr, ptr, ptr, ptr, ptr, ptr, i32, i32, ptr, ptr, ptr, ptr, ptr, i64, double, i32, i32, i64, double, double, double, i32, i32, double, i32, i32, i32, i32, i32, i32, i32, i32, i32, i32, i32, i32, i32, i32, i32, i32, ptr, i64, i32, [6 x [4 x double]], i32, i64, ptr, i32, ptr, ptr, double, double, double, ptr, ptr, ptr, double, double, i32, i32, i64, ptr, i32, ptr, i32, i32, [13 x double], ptr, ptr, ptr, i32, ptr, i32 }

; Function Attrs: nounwind uwtable
define internal i32 @cvHandleNFlag(ptr noundef %0, ptr noundef %1, double noundef %2, ptr noundef %3, ptr noundef %4) #0 {
  %6 = alloca i32, align 4
  %7 = alloca ptr, align 8
  %8 = alloca ptr, align 8
  %9 = alloca double, align 8
  %10 = alloca ptr, align 8
  %11 = alloca ptr, align 8
  %12 = alloca i32, align 4
  %13 = alloca i32, align 4
  store ptr %0, ptr %7, align 8, !tbaa !10
  store ptr %1, ptr %8, align 8, !tbaa !302
  store double %2, ptr %9, align 8, !tbaa !150
  store ptr %3, ptr %10, align 8, !tbaa !302
  store ptr %4, ptr %11, align 8, !tbaa !303
  call void @llvm.lifetime.start.p0(i64 4, ptr %12) #10
  %14 = load ptr, ptr %8, align 8, !tbaa !302
  %15 = load i32, ptr %14, align 4, !tbaa !3
  store i32 %15, ptr %12, align 4, !tbaa !3
  %16 = load i32, ptr %12, align 4, !tbaa !3
  %17 = icmp eq i32 %16, 0
  br i1 %17, label %18, label %19

18:                                               ; preds = %5
  store i32 2, ptr %6, align 4
  store i32 1, ptr %13, align 4
  br label %135

19:                                               ; preds = %5
  %20 = load ptr, ptr %11, align 8, !tbaa !303
  %21 = load i64, ptr %20, align 8, !tbaa !144
  %22 = add nsw i64 %21, 1
  store i64 %22, ptr %20, align 8, !tbaa !144
  %23 = load ptr, ptr %7, align 8, !tbaa !10
  %24 = load double, ptr %9, align 8, !tbaa !150
  call void @cvRestore(ptr noundef %23, double noundef %24)
  %25 = load i32, ptr %12, align 4, !tbaa !3
  %26 = icmp slt i32 %25, 0
  br i1 %26, label %27, label %52

27:                                               ; preds = %19
  %28 = load i32, ptr %12, align 4, !tbaa !3
  %29 = icmp eq i32 %28, -6
  br i1 %29, label %30, label %31

30:                                               ; preds = %27
  store i32 -6, ptr %6, align 4
  store i32 1, ptr %13, align 4
  br label %135

31:                                               ; preds = %27
  %32 = load i32, ptr %12, align 4, !tbaa !3
  %33 = icmp eq i32 %32, -7
  br i1 %33, label %34, label %35

34:                                               ; preds = %31
  store i32 -7, ptr %6, align 4
  store i32 1, ptr %13, align 4
  br label %135

35:                                               ; preds = %31
  %36 = load i32, ptr %12, align 4, !tbaa !3
  %37 = icmp eq i32 %36, -8
  br i1 %37, label %38, label %39

38:                                               ; preds = %35
  store i32 -8, ptr %6, align 4
  store i32 1, ptr %13, align 4
  br label %135

39:                                               ; preds = %35
  %40 = load i32, ptr %12, align 4, !tbaa !3
  %41 = icmp eq i32 %40, -31
  br i1 %41, label %42, label %43

42:                                               ; preds = %39
  store i32 -31, ptr %6, align 4
  store i32 1, ptr %13, align 4
  br label %135

43:                                               ; preds = %39
  %44 = load i32, ptr %12, align 4, !tbaa !3
  %45 = icmp eq i32 %44, -41
  br i1 %45, label %46, label %47

46:                                               ; preds = %43
  store i32 -41, ptr %6, align 4
  store i32 1, ptr %13, align 4
  br label %135

47:                                               ; preds = %43
  %48 = load i32, ptr %12, align 4, !tbaa !3
  %49 = icmp eq i32 %48, -51
  br i1 %49, label %50, label %51

50:                                               ; preds = %47
  store i32 -51, ptr %6, align 4
  store i32 1, ptr %13, align 4
  br label %135

51:                                               ; preds = %47
  store i32 -16, ptr %6, align 4
  store i32 1, ptr %13, align 4
  br label %135

52:                                               ; preds = %19
  %53 = load ptr, ptr %10, align 8, !tbaa !302
  %54 = load i32, ptr %53, align 4, !tbaa !3
  %55 = add nsw i32 %54, 1
  store i32 %55, ptr %53, align 4, !tbaa !3
  %56 = load ptr, ptr %7, align 8, !tbaa !10
  %57 = getelementptr inbounds nuw %struct.CVodeMemRec, ptr %56, i32 0, i32 120
  store double 1.000000e+00, ptr %57, align 8, !tbaa !172
  %58 = load ptr, ptr %7, align 8, !tbaa !10
  %59 = getelementptr inbounds nuw %struct.CVodeMemRec, ptr %58, i32 0, i32 88
  %60 = load double, ptr %59, align 8, !tbaa !265
  %61 = call double @llvm.fabs.f64(double %60)
  %62 = load ptr, ptr %7, align 8, !tbaa !10
  %63 = getelementptr inbounds nuw %struct.CVodeMemRec, ptr %62, i32 0, i32 118
  %64 = load double, ptr %63, align 8, !tbaa !40
  %65 = fmul double %64, 0x3FF000010C6F7A0B
  %66 = fcmp ole double %61, %65
  br i1 %66, label %74, label %67

67:                                               ; preds = %52
  %68 = load ptr, ptr %10, align 8, !tbaa !302
  %69 = load i32, ptr %68, align 4, !tbaa !3
  %70 = load ptr, ptr %7, align 8, !tbaa !10
  %71 = getelementptr inbounds nuw %struct.CVodeMemRec, ptr %70, i32 0, i32 117
  %72 = load i32, ptr %71, align 8, !tbaa !56
  %73 = icmp eq i32 %69, %72
  br i1 %73, label %74, label %99

74:                                               ; preds = %67, %52
  %75 = load i32, ptr %12, align 4, !tbaa !3
  %76 = icmp eq i32 %75, 902
  br i1 %76, label %77, label %78

77:                                               ; preds = %74
  store i32 -4, ptr %6, align 4
  store i32 1, ptr %13, align 4
  br label %135

78:                                               ; preds = %74
  %79 = load i32, ptr %12, align 4, !tbaa !3
  %80 = icmp eq i32 %79, 11
  br i1 %80, label %81, label %82

81:                                               ; preds = %78
  store i32 -15, ptr %6, align 4
  store i32 1, ptr %13, align 4
  br label %135

82:                                               ; preds = %78
  %83 = load i32, ptr %12, align 4, !tbaa !3
  %84 = icmp eq i32 %83, 10
  br i1 %84, label %85, label %86

85:                                               ; preds = %82
  store i32 -10, ptr %6, align 4
  store i32 1, ptr %13, align 4
  br label %135

86:                                               ; preds = %82
  %87 = load i32, ptr %12, align 4, !tbaa !3
  %88 = icmp eq i32 %87, 14
  br i1 %88, label %89, label %90

89:                                               ; preds = %86
  store i32 -33, ptr %6, align 4
  store i32 1, ptr %13, align 4
  br label %135

90:                                               ; preds = %86
  %91 = load i32, ptr %12, align 4, !tbaa !3
  %92 = icmp eq i32 %91, 15
  br i1 %92, label %93, label %94

93:                                               ; preds = %90
  store i32 -43, ptr %6, align 4
  store i32 1, ptr %13, align 4
  br label %135

94:                                               ; preds = %90
  %95 = load i32, ptr %12, align 4, !tbaa !3
  %96 = icmp eq i32 %95, 16
  br i1 %96, label %97, label %98

97:                                               ; preds = %94
  store i32 -53, ptr %6, align 4
  store i32 1, ptr %13, align 4
  br label %135

98:                                               ; preds = %94
  br label %99

99:                                               ; preds = %98, %67
  %100 = load i32, ptr %12, align 4, !tbaa !3
  %101 = icmp ne i32 %100, 11
  br i1 %101, label %102, label %132

102:                                              ; preds = %99
  %103 = load ptr, ptr %7, align 8, !tbaa !10
  %104 = getelementptr inbounds nuw %struct.CVodeMemRec, ptr %103, i32 0, i32 129
  %105 = load double, ptr %104, align 8, !tbaa !50
  %106 = load ptr, ptr %7, align 8, !tbaa !10
  %107 = getelementptr inbounds nuw %struct.CVodeMemRec, ptr %106, i32 0, i32 118
  %108 = load double, ptr %107, align 8, !tbaa !40
  %109 = load ptr, ptr %7, align 8, !tbaa !10
  %110 = getelementptr inbounds nuw %struct.CVodeMemRec, ptr %109, i32 0, i32 88
  %111 = load double, ptr %110, align 8, !tbaa !265
  %112 = call double @llvm.fabs.f64(double %111)
  %113 = fdiv double %108, %112
  %114 = fcmp ogt double %105, %113
  br i1 %114, label %115, label %119

115:                                              ; preds = %102
  %116 = load ptr, ptr %7, align 8, !tbaa !10
  %117 = getelementptr inbounds nuw %struct.CVodeMemRec, ptr %116, i32 0, i32 129
  %118 = load double, ptr %117, align 8, !tbaa !50
  br label %128

119:                                              ; preds = %102
  %120 = load ptr, ptr %7, align 8, !tbaa !10
  %121 = getelementptr inbounds nuw %struct.CVodeMemRec, ptr %120, i32 0, i32 118
  %122 = load double, ptr %121, align 8, !tbaa !40
  %123 = load ptr, ptr %7, align 8, !tbaa !10
  %124 = getelementptr inbounds nuw %struct.CVodeMemRec, ptr %123, i32 0, i32 88
  %125 = load double, ptr %124, align 8, !tbaa !265
  %126 = call double @llvm.fabs.f64(double %125)
  %127 = fdiv double %122, %126
  br label %128

128:                                              ; preds = %119, %115
  %129 = phi double [ %118, %115 ], [ %127, %119 ]
  %130 = load ptr, ptr %7, align 8, !tbaa !10
  %131 = getelementptr inbounds nuw %struct.CVodeMemRec, ptr %130, i32 0, i32 91
  store double %129, ptr %131, align 8, !tbaa !269
  br label %132

132:                                              ; preds = %128, %99
  %133 = load ptr, ptr %8, align 8, !tbaa !302
  store i32 7, ptr %133, align 4, !tbaa !3
  %134 = load ptr, ptr %7, align 8, !tbaa !10
  call void @cvRescale(ptr noundef %134)
  store i32 3, ptr %6, align 4
  store i32 1, ptr %13, align 4
  br label %135

135:                                              ; preds = %132, %97, %93, %89, %85, %81, %77, %51, %50, %46, %42, %38, %34, %30, %18
  call void @llvm.lifetime.end.p0(i64 4, ptr %12) #10
  %136 = load i32, ptr %6, align 4
  ret i32 %136
}