; Function Attrs: nounwind uwtable
define internal fastcc range(i32 -53, 4) i32 @cvHandleNFlag(ptr noundef nonnull %0, ptr noundef nonnull captures(none) %1, double noundef %2, ptr noundef captures(none) %3, ptr noundef captures(none) %4) unnamed_addr #0 {
  %6 = load i32, ptr %1, align 4, !tbaa !67
  %7 = icmp eq i32 %6, 0
  br i1 %7, label %43, label %8

8:                                                ; preds = %5
  %9 = load i64, ptr %4, align 8, !tbaa !94
  %10 = add nsw i64 %9, 1
  store i64 %10, ptr %4, align 8, !tbaa !94
  tail call void @cvRestore(ptr noundef nonnull %0, double noundef %2)
  %11 = icmp slt i32 %6, 0
  br i1 %11, label %12, label %14

12:                                               ; preds = %8
  switch i32 %6, label %13 [
    i32 -6, label %43
    i32 -7, label %43
    i32 -8, label %43
    i32 -31, label %43
    i32 -41, label %43
    i32 -51, label %43
  ]

13:                                               ; preds = %12
  br label %43

14:                                               ; preds = %8
  %15 = load i32, ptr %3, align 4, !tbaa !67
  %16 = add nsw i32 %15, 1
  store i32 %16, ptr %3, align 4, !tbaa !67
  %17 = getelementptr inbounds nuw i8, ptr %0, i64 1480
  store double 1.000000e+00, ptr %17, align 8, !tbaa !111
  %18 = getelementptr inbounds nuw i8, ptr %0, i64 992
  %19 = load double, ptr %18, align 8, !tbaa !233
  %20 = tail call double @llvm.fabs.f64(double %19)
  %21 = getelementptr inbounds nuw i8, ptr %0, i64 1464
  %22 = load double, ptr %21, align 8, !tbaa !235
  %23 = fmul double %22, 0x3FF000010C6F7A0B
  %24 = fcmp ugt double %20, %23
  br i1 %24, label %25, label %29

25:                                               ; preds = %14
  %26 = getelementptr inbounds nuw i8, ptr %0, i64 1456
  %27 = load i32, ptr %26, align 8, !tbaa !37
  %28 = icmp eq i32 %16, %27
  br i1 %28, label %29, label %35

29:                                               ; preds = %25, %14
  switch i32 %6, label %36 [
    i32 902, label %43
    i32 11, label %30
    i32 10, label %31
    i32 14, label %32
    i32 15, label %33
    i32 16, label %34
  ]

30:                                               ; preds = %29
  br label %43

31:                                               ; preds = %29
  br label %43

32:                                               ; preds = %29
  br label %43

33:                                               ; preds = %29
  br label %43

34:                                               ; preds = %29
  br label %43

35:                                               ; preds = %25
  %.not = icmp eq i32 %6, 11
  br i1 %.not, label %42, label %36

36:                                               ; preds = %29, %35
  %37 = getelementptr inbounds nuw i8, ptr %0, i64 1552
  %38 = load double, ptr %37, align 8, !tbaa !33
  %39 = fdiv double %22, %20
  %40 = fcmp ogt double %38, %39
  %. = select i1 %40, double %38, double %39
  %41 = getelementptr inbounds nuw i8, ptr %0, i64 1016
  store double %., ptr %41, align 8, !tbaa !241
  br label %42

42:                                               ; preds = %36, %35
  store i32 7, ptr %1, align 4, !tbaa !67
  tail call void @cvRescale(ptr noundef nonnull %0)
  br label %43

43:                                               ; preds = %12, %12, %12, %12, %12, %29, %12, %5, %42, %34, %33, %32, %31, %30, %13
  %.0 = phi i32 [ -16, %13 ], [ -15, %30 ], [ -10, %31 ], [ -33, %32 ], [ -43, %33 ], [ -53, %34 ], [ 3, %42 ], [ 2, %5 ], [ %6, %12 ], [ -4, %29 ], [ %6, %12 ], [ %6, %12 ], [ %6, %12 ], [ %6, %12 ], [ %6, %12 ]
  ret i32 %.0
}